target datalayout = "e-m:e-p270:32:32-p271:32:32-p272:64:64-i64:64-i128:128-f80:128-n8:16:32:64-S128"
target triple = "x86_64-pc-linux-gnu"

%struct.UConverterLoadArgs = type { i32, i32, i8, i8, i16, i32, ptr, ptr, ptr }
%struct.UConverterNamePieces = type { [60 x i8], [157 x i8], i32 }

; Function Attrs: inlinehint mustprogress nounwind uwtable
define internal noundef signext i8 @_ZL9U_SUCCESS10UErrorCode(i32 noundef %0) #3 {
  %2 = alloca i32, align 4
  store i32 %0, ptr %2, align 4, !tbaa !9
  %3 = load i32, ptr %2, align 4, !tbaa !9
  %4 = icmp sle i32 %3, 0
  %5 = zext i1 %4 to i8
  ret i8 %5
}

; Function Attrs: mustprogress uwtable
define ptr @ucnv_createConverter_77(ptr noundef %0, ptr noundef %1, ptr noundef %2) #0 {
  %4 = alloca ptr, align 8
  %5 = alloca ptr, align 8
  %6 = alloca ptr, align 8
  %7 = alloca ptr, align 8
  %8 = alloca %struct.UConverterNamePieces, align 4
  %9 = alloca %struct.UConverterLoadArgs, align 8
  %10 = alloca ptr, align 8
  %11 = alloca i32, align 4
  store ptr %0, ptr %5, align 8, !tbaa !56
  store ptr %1, ptr %6, align 8, !tbaa !31
  store ptr %2, ptr %7, align 8, !tbaa !8
  call void @llvm.lifetime.start.p0(i64 224, ptr %8) #12
  call void @llvm.lifetime.start.p0(i64 40, ptr %9) #12
  call void @llvm.memset.p0.i64(ptr align 8 %9, i8 0, i64 40, i1 false)
  %12 = getelementptr inbounds %struct.UConverterLoadArgs, ptr %9, i32 0, i32 0
  store i32 40, ptr %12, align 8
  call void @llvm.lifetime.start.p0(i64 8, ptr %10) #12
  %13 = load ptr, ptr %7, align 8, !tbaa !8
  %14 = load i32, ptr %13, align 4, !tbaa !9
  %15 = call noundef signext i8 @_ZL9U_SUCCESS10UErrorCode(i32 noundef %14)
  %16 = icmp ne i8 %15, 0
  br i1 %16, label %17, label %32

17:                                               ; preds = %3
  %18 = load ptr, ptr %6, align 8, !tbaa !31
  %19 = load ptr, ptr %7, align 8, !tbaa !8
  %20 = call ptr @ucnv_loadSharedData_77(ptr noundef %18, ptr noundef %8, ptr noundef %9, ptr noundef %19)
  store ptr %20, ptr %10, align 8, !tbaa !18
  %21 = load ptr, ptr %5, align 8, !tbaa !56
  %22 = load ptr, ptr %10, align 8, !tbaa !18
  %23 = load ptr, ptr %7, align 8, !tbaa !8
  %24 = call ptr @ucnv_createConverterFromSharedData_77(ptr noundef %21, ptr noundef %22, ptr noundef %9, ptr noundef %23)
  store ptr %24, ptr %5, align 8, !tbaa !56
  %25 = load ptr, ptr %7, align 8, !tbaa !8
  %26 = load i32, ptr %25, align 4, !tbaa !9
  %27 = call noundef signext i8 @_ZL9U_SUCCESS10UErrorCode(i32 noundef %26)
  %28 = icmp ne i8 %27, 0
  br i1 %28, label %29, label %31

29:                                               ; preds = %17
  %30 = load ptr, ptr %5, align 8, !tbaa !56
  store ptr %30, ptr %4, align 8
  store i32 1, ptr %11, align 4
  br label %33

31:                                               ; preds = %17
  br label %32

32:                                               ; preds = %31, %3
  store ptr null, ptr %4, align 8
  store i32 1, ptr %11, align 4
  br label %33

33:                                               ; preds = %32, %29
  call void @llvm.lifetime.end.p0(i64 8, ptr %10) #12
  call void @llvm.lifetime.end.p0(i64 40, ptr %9) #12
  call void @llvm.lifetime.end.p0(i64 224, ptr %8) #12
  %34 = load ptr, ptr %4, align 8
  ret ptr %34
}