; Function Attrs: mustprogress uwtable
define noundef ptr @ucnv_createConverter_77(ptr noundef %0, ptr noundef %1, ptr noundef %2) local_unnamed_addr #0 {
  %4 = alloca %struct.UConverterNamePieces, align 4
  %5 = alloca %struct.UConverterLoadArgs, align 8
  call void @llvm.lifetime.start.p0(i64 224, ptr nonnull %4) #11
  call void @llvm.lifetime.start.p0(i64 40, ptr nonnull %5) #11
  call void @llvm.memset.p0.i64(ptr noundef nonnull align 8 dereferenceable(40) %5, i8 0, i64 40, i1 false)
  store i32 40, ptr %5, align 8
  %6 = load i32, ptr %2, align 4, !tbaa !13
  %7 = icmp sgt i32 %6, 0
  br i1 %7, label %13, label %8

8:                                                ; preds = %3
  %9 = call ptr @ucnv_loadSharedData_77(ptr noundef %1, ptr noundef nonnull %4, ptr noundef nonnull %5, ptr noundef nonnull %2)
  %10 = call ptr @ucnv_createConverterFromSharedData_77(ptr noundef %0, ptr noundef %9, ptr noundef nonnull %5, ptr noundef nonnull %2)
  %11 = load i32, ptr %2, align 4, !tbaa !13
  %12 = icmp sgt i32 %11, 0
  br i1 %12, label %13, label %14

13:                                               ; preds = %8, %3
  br label %14

14:                                               ; preds = %8, %13
  %.0 = phi ptr [ null, %13 ], [ %10, %8 ]
  call void @llvm.lifetime.end.p0(i64 40, ptr nonnull %5) #11
  call void @llvm.lifetime.end.p0(i64 224, ptr nonnull %4) #11
  ret ptr %.0
}